; Function Attrs: mustprogress uwtable
define hidden noundef ptr @_ZN19OpenColorIO_v2_5dev20AVXGetLut1DApplyFuncENS_8BitDepthES0_(i32 noundef %0, i32 noundef %1) local_unnamed_addr #3 {
  %cond = icmp eq i32 %0, 8
  br i1 %cond, label %3, label %_ZN19OpenColorIO_v2_5dev12_GLOBAL__N_120GetConvertInBitDepthILNS_8BitDepthE8EEEPFvPKfS4_S4_iPKvPvlES2_.exit

3:                                                ; preds = %2
  switch i32 %1, label %12 [
    i32 1, label %_ZN19OpenColorIO_v2_5dev12_GLOBAL__N_120GetConvertInBitDepthILNS_8BitDepthE8EEEPFvPKfS4_S4_iPKvPvlES2_.exit
    i32 2, label %4
    i32 3, label %5
    i32 5, label %6
    i32 7, label %7
    i32 8, label %11
  ]

4:                                                ; preds = %3
  br label %_ZN19OpenColorIO_v2_5dev12_GLOBAL__N_120GetConvertInBitDepthILNS_8BitDepthE8EEEPFvPKfS4_S4_iPKvPvlES2_.exit

5:                                                ; preds = %3
  br label %_ZN19OpenColorIO_v2_5dev12_GLOBAL__N_120GetConvertInBitDepthILNS_8BitDepthE8EEEPFvPKfS4_S4_iPKvPvlES2_.exit

6:                                                ; preds = %3
  br label %_ZN19OpenColorIO_v2_5dev12_GLOBAL__N_120GetConvertInBitDepthILNS_8BitDepthE8EEEPFvPKfS4_S4_iPKvPvlES2_.exit

7:                                                ; preds = %3
  %8 = tail call noundef nonnull align 4 dereferenceable(90) ptr @_ZN19OpenColorIO_v2_5dev7CPUInfo8instanceEv()
  %9 = load i32, ptr %8, align 4, !tbaa !3
  %10 = and i32 %9, 8192
  %.not.i = icmp eq i32 %10, 0
  br i1 %.not.i, label %12, label %_ZN19OpenColorIO_v2_5dev12_GLOBAL__N_120GetConvertInBitDepthILNS_8BitDepthE8EEEPFvPKfS4_S4_iPKvPvlES2_.exit

11:                                               ; preds = %3
  br label %_ZN19OpenColorIO_v2_5dev12_GLOBAL__N_120GetConvertInBitDepthILNS_8BitDepthE8EEEPFvPKfS4_S4_iPKvPvlES2_.exit

12:                                               ; preds = %7, %3
  br label %_ZN19OpenColorIO_v2_5dev12_GLOBAL__N_120GetConvertInBitDepthILNS_8BitDepthE8EEEPFvPKfS4_S4_iPKvPvlES2_.exit

_ZN19OpenColorIO_v2_5dev12_GLOBAL__N_120GetConvertInBitDepthILNS_8BitDepthE8EEEPFvPKfS4_S4_iPKvPvlES2_.exit: ; preds = %12, %11, %7, %6, %5, %4, %3, %2
  %.0 = phi ptr [ null, %2 ], [ null, %12 ], [ @_ZN19OpenColorIO_v2_5dev12_GLOBAL__N_18linear1DILNS_8BitDepthE8ELS2_8EEEvPKfS4_S4_iPKvPvl, %11 ], [ @_ZN19OpenColorIO_v2_5dev12_GLOBAL__N_18linear1DILNS_8BitDepthE8ELS2_5EEEvPKfS4_S4_iPKvPvl, %6 ], [ @_ZN19OpenColorIO_v2_5dev12_GLOBAL__N_18linear1DILNS_8BitDepthE8ELS2_3EEEvPKfS4_S4_iPKvPvl, %5 ], [ @_ZN19OpenColorIO_v2_5dev12_GLOBAL__N_18linear1DILNS_8BitDepthE8ELS2_2EEEvPKfS4_S4_iPKvPvl, %4 ], [ @_ZN19OpenColorIO_v2_5dev12_GLOBAL__N_18linear1DILNS_8BitDepthE8ELS2_1EEEvPKfS4_S4_iPKvPvl, %3 ], [ @_ZN19OpenColorIO_v2_5dev12_GLOBAL__N_18linear1DILNS_8BitDepthE8ELS2_7EEEvPKfS4_S4_iPKvPvl, %7 ]
  ret ptr %.0
}